target datalayout = "e-m:e-p270:32:32-p271:32:32-p272:64:64-i64:64-i128:128-f80:128-n8:16:32:64-S128"
target triple = "x86_64-pc-linux-gnu"

%"class.cvc5::internal::NodeTemplate" = type { ptr }
%"struct.std::_Rb_tree_header" = type { %"struct.std::_Rb_tree_node_base", i64 }
%"struct.std::_Rb_tree_node_base" = type { i32, ptr, ptr, ptr }
%"class.std::map" = type { %"class.std::_Rb_tree" }
%"class.std::_Rb_tree" = type { %"struct.std::_Rb_tree<cvc5::internal::NodeTemplate<true>, std::pair<const cvc5::internal::NodeTemplate<true>, bool>, std::_Select1st<std::pair<const cvc5::internal::NodeTemplate<true>, bool>>, std::less<cvc5::internal::NodeTemplate<true>>>::_Rb_tree_impl" }
%"struct.std::_Rb_tree<cvc5::internal::NodeTemplate<true>, std::pair<const cvc5::internal::NodeTemplate<true>, bool>, std::_Select1st<std::pair<const cvc5::internal::NodeTemplate<true>, bool>>, std::less<cvc5::internal::NodeTemplate<true>>>::_Rb_tree_impl" = type { [8 x i8], %"struct.std::_Rb_tree_header" }
%"class.cvc5::internal::theory::quantifiers::inst::InstMatchGenerator" = type { %"class.cvc5::internal::theory::quantifiers::inst::IMGenerator", %"class.cvc5::internal::NodeTemplate", %"class.cvc5::internal::NodeTemplate", %"class.cvc5::internal::NodeTemplate", i8, ptr, %"class.std::vector", %"class.std::vector.0", %"class.std::vector.5", ptr, %"class.cvc5::internal::NodeTemplate", %"class.cvc5::internal::NodeTemplate", %"class.std::map", %"class.cvc5::internal::NodeTemplate", i8, i8, %"class.cvc5::internal::TypeNode", %"class.cvc5::internal::NodeTemplate" }
%"class.cvc5::internal::theory::quantifiers::inst::IMGenerator" = type { %"class.cvc5::internal::EnvObj", ptr, ptr, ptr }
%"class.cvc5::internal::EnvObj" = type { ptr, ptr }
%"class.std::vector" = type { %"struct.std::_Vector_base" }
%"struct.std::_Vector_base" = type { %"struct.std::_Vector_base<cvc5::internal::theory::quantifiers::inst::InstMatchGenerator *, std::allocator<cvc5::internal::theory::quantifiers::inst::InstMatchGenerator *>>::_Vector_impl" }
%"struct.std::_Vector_base<cvc5::internal::theory::quantifiers::inst::InstMatchGenerator *, std::allocator<cvc5::internal::theory::quantifiers::inst::InstMatchGenerator *>>::_Vector_impl" = type { %"struct.std::_Vector_base<cvc5::internal::theory::quantifiers::inst::InstMatchGenerator *, std::allocator<cvc5::internal::theory::quantifiers::inst::InstMatchGenerator *>>::_Vector_impl_data" }
%"struct.std::_Vector_base<cvc5::internal::theory::quantifiers::inst::InstMatchGenerator *, std::allocator<cvc5::internal::theory::quantifiers::inst::InstMatchGenerator *>>::_Vector_impl_data" = type { ptr, ptr, ptr }
%"class.std::vector.0" = type { %"struct.std::_Vector_base.1" }
%"struct.std::_Vector_base.1" = type { %"struct.std::_Vector_base<unsigned long, std::allocator<unsigned long>>::_Vector_impl" }
%"struct.std::_Vector_base<unsigned long, std::allocator<unsigned long>>::_Vector_impl" = type { %"struct.std::_Vector_base<unsigned long, std::allocator<unsigned long>>::_Vector_impl_data" }
%"struct.std::_Vector_base<unsigned long, std::allocator<unsigned long>>::_Vector_impl_data" = type { ptr, ptr, ptr }
%"class.std::vector.5" = type { %"struct.std::_Vector_base.6" }
%"struct.std::_Vector_base.6" = type { %"struct.std::_Vector_base<long, std::allocator<long>>::_Vector_impl" }
%"struct.std::_Vector_base<long, std::allocator<long>>::_Vector_impl" = type { %"struct.std::_Vector_base<long, std::allocator<long>>::_Vector_impl_data" }
%"struct.std::_Vector_base<long, std::allocator<long>>::_Vector_impl_data" = type { ptr, ptr, ptr }
%"class.cvc5::internal::TypeNode" = type { ptr }
%"class.__gnu_cxx::__normal_iterator.30" = type { ptr }

@_ZN4cvc58internal12NodeTemplateILb1EE6s_nullE = linkonce_odr hidden global %"class.cvc5::internal::NodeTemplate" zeroinitializer, comdat, align 8

; Function Attrs: mustprogress uwtable
define linkonce_odr hidden void @_ZN4cvc58internal4expr9NodeValue3incEv(ptr noundef nonnull align 8 dereferenceable(24) %0) #4 comdat align 2 {
  %2 = alloca ptr, align 8
  store ptr %0, ptr %2, align 8, !tbaa !368
  %3 = load ptr, ptr %2, align 8
  %4 = load i64, ptr %3, align 8
  %5 = lshr i64 %4, 40
  %6 = and i64 %5, 1048575
  %7 = trunc i64 %6 to i32
  %8 = icmp ult i32 %7, 1048574
  %9 = zext i1 %8 to i64
  %10 = call i64 @llvm.expect.i64(i64 %9, i64 1)
  %11 = icmp ne i64 %10, 0
  br i1 %11, label %12, label %24

12:                                               ; preds = %1
  %13 = load i64, ptr %3, align 8
  %14 = lshr i64 %13, 40
  %15 = and i64 %14, 1048575
  %16 = trunc i64 %15 to i32
  %17 = add i32 %16, 1
  %18 = zext i32 %17 to i64
  %19 = load i64, ptr %3, align 8
  %20 = and i64 %18, 1048575
  %21 = shl i64 %20, 40
  %22 = and i64 %19, -1152920405095219201
  %23 = or i64 %22, %21
  store i64 %23, ptr %3, align 8
  br label %46

24:                                               ; preds = %1
  %25 = load i64, ptr %3, align 8
  %26 = lshr i64 %25, 40
  %27 = and i64 %26, 1048575
  %28 = trunc i64 %27 to i32
  %29 = icmp eq i32 %28, 1048574
  %30 = zext i1 %29 to i64
  %31 = call i64 @llvm.expect.i64(i64 %30, i64 0)
  %32 = icmp ne i64 %31, 0
  br i1 %32, label %33, label %45

33:                                               ; preds = %24
  %34 = load i64, ptr %3, align 8
  %35 = lshr i64 %34, 40
  %36 = and i64 %35, 1048575
  %37 = trunc i64 %36 to i32
  %38 = add i32 %37, 1
  %39 = zext i32 %38 to i64
  %40 = load i64, ptr %3, align 8
  %41 = and i64 %39, 1048575
  %42 = shl i64 %41, 40
  %43 = and i64 %40, -1152920405095219201
  %44 = or i64 %43, %42
  store i64 %44, ptr %3, align 8
  call void @_ZN4cvc58internal4expr9NodeValue20markRefCountMaxedOutEv(ptr noundef nonnull align 8 dereferenceable(24) %3)
  br label %45

45:                                               ; preds = %33, %24
  br label %46

46:                                               ; preds = %45, %12
  ret void
}

; Function Attrs: mustprogress uwtable
define linkonce_odr hidden void @_ZN4cvc58internal12NodeTemplateILb1EEC2ERKS2_(ptr noundef nonnull align 8 dereferenceable(8) %0, ptr noundef nonnull align 8 dereferenceable(8) %1) unnamed_addr #4 comdat align 2 {
  %3 = alloca ptr, align 8
  %4 = alloca ptr, align 8
  store ptr %0, ptr %3, align 8, !tbaa !12
  store ptr %1, ptr %4, align 8, !tbaa !12
  %5 = load ptr, ptr %3, align 8
  %6 = load ptr, ptr %4, align 8, !tbaa !12
  %7 = getelementptr inbounds nuw %"class.cvc5::internal::NodeTemplate", ptr %6, i32 0, i32 0
  %8 = load ptr, ptr %7, align 8, !tbaa !41
  %9 = getelementptr inbounds nuw %"class.cvc5::internal::NodeTemplate", ptr %5, i32 0, i32 0
  store ptr %8, ptr %9, align 8, !tbaa !41
  %10 = getelementptr inbounds nuw %"class.cvc5::internal::NodeTemplate", ptr %5, i32 0, i32 0
  %11 = load ptr, ptr %10, align 8, !tbaa !41
  call void @_ZN4cvc58internal4expr9NodeValue3incEv(ptr noundef nonnull align 8 dereferenceable(24) %11)
  ret void
}

; Function Attrs: mustprogress nounwind uwtable
define linkonce_odr hidden noundef nonnull align 8 dereferenceable(8) ptr @_ZNK9__gnu_cxx17__normal_iteratorIPPN4cvc58internal6theory11quantifiers4inst18InstMatchGeneratorESt6vectorIS7_SaIS7_EEE4baseEv(ptr noundef nonnull align 8 dereferenceable(8) %0) #5 comdat align 2 {
  %2 = alloca ptr, align 8
  store ptr %0, ptr %2, align 8, !tbaa !131
  %3 = load ptr, ptr %2, align 8
  %4 = getelementptr inbounds nuw %"class.__gnu_cxx::__normal_iterator.30", ptr %3, i32 0, i32 0
  ret ptr %4
}

; Function Attrs: mustprogress nounwind uwtable
define linkonce_odr hidden void @_ZN9__gnu_cxx17__normal_iteratorIPPN4cvc58internal6theory11quantifiers4inst18InstMatchGeneratorESt6vectorIS7_SaIS7_EEEC2ERKS8_(ptr noundef nonnull align 8 dereferenceable(8) %0, ptr noundef nonnull align 8 dereferenceable(8) %1) unnamed_addr #5 comdat align 2 {
  %3 = alloca ptr, align 8
  %4 = alloca ptr, align 8
  store ptr %0, ptr %3, align 8, !tbaa !131
  store ptr %1, ptr %4, align 8, !tbaa !557
  %5 = load ptr, ptr %3, align 8
  %6 = getelementptr inbounds nuw %"class.__gnu_cxx::__normal_iterator.30", ptr %5, i32 0, i32 0
  %7 = load ptr, ptr %4, align 8, !tbaa !557
  %8 = load ptr, ptr %7, align 8, !tbaa !97
  store ptr %8, ptr %6, align 8, !tbaa !133
  ret void
}

; Function Attrs: mustprogress nounwind uwtable
define linkonce_odr hidden noundef nonnull align 8 dereferenceable(8) ptr @_ZN9__gnu_cxx17__normal_iteratorIPPN4cvc58internal6theory11quantifiers4inst18InstMatchGeneratorESt6vectorIS7_SaIS7_EEEppEv(ptr noundef nonnull align 8 dereferenceable(8) %0) #5 comdat align 2 {
  %2 = alloca ptr, align 8
  store ptr %0, ptr %2, align 8, !tbaa !131
  %3 = load ptr, ptr %2, align 8
  %4 = getelementptr inbounds nuw %"class.__gnu_cxx::__normal_iterator.30", ptr %3, i32 0, i32 0
  %5 = load ptr, ptr %4, align 8, !tbaa !133
  %6 = getelementptr inbounds nuw ptr, ptr %5, i32 1
  store ptr %6, ptr %4, align 8, !tbaa !133
  ret ptr %3
}

; Function Attrs: mustprogress uwtable
define linkonce_odr hidden void @_ZN4cvc58internal12NodeTemplateILb1EE4nullEv(ptr dead_on_unwind noalias writable sret(%"class.cvc5::internal::NodeTemplate") align 8 %0) #4 comdat align 2 {
  %2 = alloca ptr, align 8
  store ptr %0, ptr %2, align 8
  call void @_ZN4cvc58internal12NodeTemplateILb1EEC2ERKS2_(ptr noundef nonnull align 8 dereferenceable(8) %0, ptr noundef nonnull align 8 dereferenceable(8) @_ZN4cvc58internal12NodeTemplateILb1EE6s_nullE)
  ret void
}

; Function Attrs: mustprogress nounwind uwtable
define linkonce_odr hidden noundef nonnull align 8 dereferenceable(8) ptr @_ZNK9__gnu_cxx17__normal_iteratorIPPN4cvc58internal6theory11quantifiers4inst18InstMatchGeneratorESt6vectorIS7_SaIS7_EEEdeEv(ptr noundef nonnull align 8 dereferenceable(8) %0) #5 comdat align 2 {
  %2 = alloca ptr, align 8
  store ptr %0, ptr %2, align 8, !tbaa !131
  %3 = load ptr, ptr %2, align 8
  %4 = getelementptr inbounds nuw %"class.__gnu_cxx::__normal_iterator.30", ptr %3, i32 0, i32 0
  %5 = load ptr, ptr %4, align 8, !tbaa !133
  ret ptr %5
}

; Function Attrs: inlinehint mustprogress nounwind uwtable
define linkonce_odr hidden noundef zeroext i1 @_ZN9__gnu_cxxneIPPN4cvc58internal6theory11quantifiers4inst18InstMatchGeneratorESt6vectorIS7_SaIS7_EEEEbRKNS_17__normal_iteratorIT_T0_EESH_(ptr noundef nonnull align 8 dereferenceable(8) %0, ptr noundef nonnull align 8 dereferenceable(8) %1) #7 comdat {
  %3 = alloca ptr, align 8
  %4 = alloca ptr, align 8
  store ptr %0, ptr %3, align 8, !tbaa !131
  store ptr %1, ptr %4, align 8, !tbaa !131
  %5 = load ptr, ptr %3, align 8, !tbaa !131
  %6 = call noundef nonnull align 8 dereferenceable(8) ptr @_ZNK9__gnu_cxx17__normal_iteratorIPPN4cvc58internal6theory11quantifiers4inst18InstMatchGeneratorESt6vectorIS7_SaIS7_EEE4baseEv(ptr noundef nonnull align 8 dereferenceable(8) %5) #3
  %7 = load ptr, ptr %6, align 8, !tbaa !97
  %8 = load ptr, ptr %4, align 8, !tbaa !131
  %9 = call noundef nonnull align 8 dereferenceable(8) ptr @_ZNK9__gnu_cxx17__normal_iteratorIPPN4cvc58internal6theory11quantifiers4inst18InstMatchGeneratorESt6vectorIS7_SaIS7_EEE4baseEv(ptr noundef nonnull align 8 dereferenceable(8) %8) #3
  %10 = load ptr, ptr %9, align 8, !tbaa !97
  %11 = icmp ne ptr %7, %10
  ret i1 %11
}

; Function Attrs: mustprogress nounwind uwtable
define linkonce_odr hidden ptr @_ZNSt6vectorIPN4cvc58internal6theory11quantifiers4inst18InstMatchGeneratorESaIS6_EE3endEv(ptr noundef nonnull align 8 dereferenceable(24) %0) #5 comdat align 2 {
  %2 = alloca %"class.__gnu_cxx::__normal_iterator.30", align 8
  %3 = alloca ptr, align 8
  store ptr %0, ptr %3, align 8, !tbaa !95
  %4 = load ptr, ptr %3, align 8
  %5 = getelementptr inbounds nuw %"struct.std::_Vector_base", ptr %4, i32 0, i32 0
  %6 = getelementptr inbounds nuw %"struct.std::_Vector_base<cvc5::internal::theory::quantifiers::inst::InstMatchGenerator *, std::allocator<cvc5::internal::theory::quantifiers::inst::InstMatchGenerator *>>::_Vector_impl_data", ptr %5, i32 0, i32 1
  call void @_ZN9__gnu_cxx17__normal_iteratorIPPN4cvc58internal6theory11quantifiers4inst18InstMatchGeneratorESt6vectorIS7_SaIS7_EEEC2ERKS8_(ptr noundef nonnull align 8 dereferenceable(8) %2, ptr noundef nonnull align 8 dereferenceable(8) %6) #3
  %7 = getelementptr inbounds nuw %"class.__gnu_cxx::__normal_iterator.30", ptr %2, i32 0, i32 0
  %8 = load ptr, ptr %7, align 8
  ret ptr %8
}

; Function Attrs: mustprogress nounwind uwtable
define linkonce_odr hidden ptr @_ZNSt6vectorIPN4cvc58internal6theory11quantifiers4inst18InstMatchGeneratorESaIS6_EE5beginEv(ptr noundef nonnull align 8 dereferenceable(24) %0) #5 comdat align 2 {
  %2 = alloca %"class.__gnu_cxx::__normal_iterator.30", align 8
  %3 = alloca ptr, align 8
  store ptr %0, ptr %3, align 8, !tbaa !95
  %4 = load ptr, ptr %3, align 8
  %5 = getelementptr inbounds nuw %"struct.std::_Vector_base", ptr %4, i32 0, i32 0
  %6 = getelementptr inbounds nuw %"struct.std::_Vector_base<cvc5::internal::theory::quantifiers::inst::InstMatchGenerator *, std::allocator<cvc5::internal::theory::quantifiers::inst::InstMatchGenerator *>>::_Vector_impl_data", ptr %5, i32 0, i32 0
  call void @_ZN9__gnu_cxx17__normal_iteratorIPPN4cvc58internal6theory11quantifiers4inst18InstMatchGeneratorESt6vectorIS7_SaIS7_EEEC2ERKS8_(ptr noundef nonnull align 8 dereferenceable(8) %2, ptr noundef nonnull align 8 dereferenceable(8) %6) #3
  %7 = getelementptr inbounds nuw %"class.__gnu_cxx::__normal_iterator.30", ptr %2, i32 0, i32 0
  %8 = load ptr, ptr %7, align 8
  ret ptr %8
}

; Function Attrs: mustprogress uwtable
define hidden noundef i32 @_ZN4cvc58internal6theory11quantifiers4inst29InstMatchGeneratorMultiLinear13resetChildrenEv(ptr noundef nonnull align 8 dereferenceable(256) %0) #4 align 2 personality ptr @__gxx_personality_v0 {
  %2 = alloca i32, align 4
  %3 = alloca ptr, align 8
  %4 = alloca ptr, align 8
  %5 = alloca %"class.__gnu_cxx::__normal_iterator.30", align 8
  %6 = alloca %"class.__gnu_cxx::__normal_iterator.30", align 8
  %7 = alloca i32, align 4
  %8 = alloca ptr, align 8
  %9 = alloca %"class.cvc5::internal::NodeTemplate", align 8
  %10 = alloca ptr, align 8
  %11 = alloca i32, align 4
  store ptr %0, ptr %3, align 8, !tbaa !3
  %12 = load ptr, ptr %3, align 8
  call void @llvm.lifetime.start.p0(i64 8, ptr %4) #3
  %13 = getelementptr inbounds nuw %"class.cvc5::internal::theory::quantifiers::inst::InstMatchGenerator", ptr %12, i32 0, i32 6
  store ptr %13, ptr %4, align 8, !tbaa !95
  call void @llvm.lifetime.start.p0(i64 8, ptr %5) #3
  %14 = load ptr, ptr %4, align 8, !tbaa !95
  %15 = call ptr @_ZNSt6vectorIPN4cvc58internal6theory11quantifiers4inst18InstMatchGeneratorESaIS6_EE5beginEv(ptr noundef nonnull align 8 dereferenceable(24) %14) #3
  %16 = getelementptr inbounds nuw %"class.__gnu_cxx::__normal_iterator.30", ptr %5, i32 0, i32 0
  store ptr %15, ptr %16, align 8
  call void @llvm.lifetime.start.p0(i64 8, ptr %6) #3
  %17 = load ptr, ptr %4, align 8, !tbaa !95
  %18 = call ptr @_ZNSt6vectorIPN4cvc58internal6theory11quantifiers4inst18InstMatchGeneratorESaIS6_EE3endEv(ptr noundef nonnull align 8 dereferenceable(24) %17) #3
  %19 = getelementptr inbounds nuw %"class.__gnu_cxx::__normal_iterator.30", ptr %6, i32 0, i32 0
  store ptr %18, ptr %19, align 8
  br label %20

20:                                               ; preds = %42, %1
  %21 = call noundef zeroext i1 @_ZN9__gnu_cxxneIPPN4cvc58internal6theory11quantifiers4inst18InstMatchGeneratorESt6vectorIS7_SaIS7_EEEEbRKNS_17__normal_iteratorIT_T0_EESH_(ptr noundef nonnull align 8 dereferenceable(8) %5, ptr noundef nonnull align 8 dereferenceable(8) %6) #3
  br i1 %21, label %23, label %22

22:                                               ; preds = %20
  store i32 2, ptr %7, align 4
  br label %44

23:                                               ; preds = %20
  call void @llvm.lifetime.start.p0(i64 8, ptr %8) #3
  %24 = call noundef nonnull align 8 dereferenceable(8) ptr @_ZNK9__gnu_cxx17__normal_iteratorIPPN4cvc58internal6theory11quantifiers4inst18InstMatchGeneratorESt6vectorIS7_SaIS7_EEEdeEv(ptr noundef nonnull align 8 dereferenceable(8) %5) #3
  %25 = load ptr, ptr %24, align 8, !tbaa !38
  store ptr %25, ptr %8, align 8, !tbaa !38
  %26 = load ptr, ptr %8, align 8, !tbaa !38
  call void @_ZN4cvc58internal12NodeTemplateILb1EE4nullEv(ptr dead_on_unwind writable sret(%"class.cvc5::internal::NodeTemplate") align 8 %9)
  %27 = load ptr, ptr %26, align 8, !tbaa !16
  %28 = getelementptr inbounds ptr, ptr %27, i64 3
  %29 = load ptr, ptr %28, align 8
  %30 = invoke noundef zeroext i1 %29(ptr noundef nonnull align 8 dereferenceable(256) %26, ptr noundef %9)
          to label %31 unwind label %34

31:                                               ; preds = %23
  %32 = xor i1 %30, true
  call void @_ZN4cvc58internal12NodeTemplateILb1EED2Ev(ptr noundef nonnull align 8 dereferenceable(8) %9) #3
  br i1 %32, label %33, label %38

33:                                               ; preds = %31
  store i32 -2, ptr %2, align 4
  store i32 1, ptr %7, align 4
  br label %39

34:                                               ; preds = %23
  %35 = landingpad { ptr, i32 }
          cleanup
  %36 = extractvalue { ptr, i32 } %35, 0
  store ptr %36, ptr %10, align 8
  %37 = extractvalue { ptr, i32 } %35, 1
  store i32 %37, ptr %11, align 4
  call void @_ZN4cvc58internal12NodeTemplateILb1EED2Ev(ptr noundef nonnull align 8 dereferenceable(8) %9) #3
  call void @llvm.lifetime.end.p0(i64 8, ptr %8) #3
  call void @llvm.lifetime.end.p0(i64 8, ptr %6) #3
  call void @llvm.lifetime.end.p0(i64 8, ptr %5) #3
  call void @llvm.lifetime.end.p0(i64 8, ptr %4) #3
  br label %49

38:                                               ; preds = %31
  store i32 0, ptr %7, align 4
  br label %39

39:                                               ; preds = %38, %33
  call void @llvm.lifetime.end.p0(i64 8, ptr %8) #3
  %40 = load i32, ptr %7, align 4
  switch i32 %40, label %44 [
    i32 0, label %41
  ]

41:                                               ; preds = %39
  br label %42

42:                                               ; preds = %41
  %43 = call noundef nonnull align 8 dereferenceable(8) ptr @_ZN9__gnu_cxx17__normal_iteratorIPPN4cvc58internal6theory11quantifiers4inst18InstMatchGeneratorESt6vectorIS7_SaIS7_EEEppEv(ptr noundef nonnull align 8 dereferenceable(8) %5) #3
  br label %20

44:                                               ; preds = %39, %22
  call void @llvm.lifetime.end.p0(i64 8, ptr %6) #3
  call void @llvm.lifetime.end.p0(i64 8, ptr %5) #3
  call void @llvm.lifetime.end.p0(i64 8, ptr %4) #3
  %45 = load i32, ptr %7, align 4
  switch i32 %45, label %54 [
    i32 2, label %46
    i32 1, label %47
  ]

46:                                               ; preds = %44
  store i32 1, ptr %2, align 4
  br label %47

47:                                               ; preds = %46, %44
  %48 = load i32, ptr %2, align 4
  ret i32 %48

49:                                               ; preds = %34
  %50 = load ptr, ptr %10, align 8
  %51 = load i32, ptr %11, align 4
  %52 = insertvalue { ptr, i32 } poison, ptr %50, 0
  %53 = insertvalue { ptr, i32 } %52, i32 %51, 1
  resume { ptr, i32 } %53

54:                                               ; preds = %44
  unreachable
}