; Function Attrs: mustprogress uwtable
define hidden noundef range(i32 -2, 2) i32 @_ZN4cvc58internal6theory11quantifiers4inst29InstMatchGeneratorMultiLinear13resetChildrenEv(ptr noundef nonnull readonly align 8 captures(none) dereferenceable(256) %0) local_unnamed_addr #3 align 2 personality ptr @__gxx_personality_v0 {
  %2 = alloca %"class.cvc5::internal::NodeTemplate", align 8
  %3 = getelementptr inbounds nuw i8, ptr %0, i64 80
  %4 = load ptr, ptr %3, align 8, !tbaa !95
  %5 = getelementptr inbounds nuw i8, ptr %0, i64 88
  %6 = load ptr, ptr %5, align 8, !tbaa !95
  %.not13 = icmp eq ptr %4, %6
  br i1 %.not13, label %._crit_edge, label %.lr.ph

7:                                                ; preds = %_ZN4cvc58internal12NodeTemplateILb1EED2Ev.exit
  %8 = getelementptr inbounds nuw i8, ptr %.sroa.010.014, i64 8
  %.not = icmp eq ptr %8, %6
  br i1 %.not, label %._crit_edge, label %.lr.ph

.lr.ph:                                           ; preds = %1, %7
  %.sroa.010.014 = phi ptr [ %8, %7 ], [ %4, %1 ]
  %9 = load ptr, ptr %.sroa.010.014, align 8, !tbaa !65
  call void @llvm.experimental.noalias.scope.decl(metadata !96)
  %10 = load ptr, ptr @_ZN4cvc58internal12NodeTemplateILb1EE6s_nullE, align 8, !tbaa !6, !noalias !96
  store ptr %10, ptr %2, align 8, !tbaa !6, !alias.scope !96
  %11 = load i64, ptr %10, align 8, !noalias !96
  %12 = lshr i64 %11, 40
  %13 = trunc nuw nsw i64 %12 to i32
  %14 = and i32 %13, 1048575
  %15 = icmp samesign ult i32 %14, 1048574
  br i1 %15, label %16, label %21, !prof !12

16:                                               ; preds = %.lr.ph
  %17 = add i64 %11, 1099511627776
  %18 = and i64 %17, 1152920405095219200
  %19 = and i64 %11, -1152920405095219201
  %20 = or disjoint i64 %18, %19
  store i64 %20, ptr %10, align 8, !noalias !96
  br label %_ZN4cvc58internal12NodeTemplateILb1EE4nullEv.exit

21:                                               ; preds = %.lr.ph
  %22 = icmp eq i32 %14, 1048574
  br i1 %22, label %23, label %_ZN4cvc58internal12NodeTemplateILb1EE4nullEv.exit, !prof !13

23:                                               ; preds = %21
  %24 = or i64 %11, 1152920405095219200
  store i64 %24, ptr %10, align 8, !noalias !96
  call void @_ZN4cvc58internal4expr9NodeValue20markRefCountMaxedOutEv(ptr noundef nonnull align 8 dereferenceable(24) %10), !noalias !96
  br label %_ZN4cvc58internal12NodeTemplateILb1EE4nullEv.exit

_ZN4cvc58internal12NodeTemplateILb1EE4nullEv.exit: ; preds = %16, %21, %23
  %25 = load ptr, ptr %9, align 8, !tbaa !14
  %26 = getelementptr inbounds nuw i8, ptr %25, i64 24
  %27 = load ptr, ptr %26, align 8
  %28 = invoke noundef zeroext i1 %27(ptr noundef nonnull align 8 dereferenceable(256) %9, ptr noundef nonnull %2)
          to label %29 unwind label %43

29:                                               ; preds = %_ZN4cvc58internal12NodeTemplateILb1EE4nullEv.exit
  %30 = load ptr, ptr %2, align 8, !tbaa !6
  %31 = load i64, ptr %30, align 8
  %32 = and i64 %31, 1152920405095219200
  %.not.i.i = icmp eq i64 %32, 1152920405095219200
  br i1 %.not.i.i, label %_ZN4cvc58internal12NodeTemplateILb1EED2Ev.exit, label %33, !prof !13

33:                                               ; preds = %29
  %34 = add i64 %31, 1152920405095219200
  %35 = and i64 %34, 1152920405095219200
  %36 = and i64 %31, -1152920405095219201
  %37 = or disjoint i64 %35, %36
  store i64 %37, ptr %30, align 8
  %38 = icmp eq i64 %35, 0
  br i1 %38, label %39, label %_ZN4cvc58internal12NodeTemplateILb1EED2Ev.exit, !prof !13

39:                                               ; preds = %33
  invoke void @_ZN4cvc58internal4expr9NodeValue15markForDeletionEv(ptr noundef nonnull align 8 dereferenceable(24) %30)
          to label %_ZN4cvc58internal12NodeTemplateILb1EED2Ev.exit unwind label %40

40:                                               ; preds = %39
  %41 = landingpad { ptr, i32 }
          catch ptr null
  %42 = extractvalue { ptr, i32 } %41, 0
  call void @__clang_call_terminate(ptr %42) #20
  unreachable

_ZN4cvc58internal12NodeTemplateILb1EED2Ev.exit:   ; preds = %29, %33, %39
  br i1 %28, label %7, label %._crit_edge

43:                                               ; preds = %_ZN4cvc58internal12NodeTemplateILb1EE4nullEv.exit
  %44 = landingpad { ptr, i32 }
          cleanup
  call void @_ZN4cvc58internal12NodeTemplateILb1EED2Ev(ptr noundef nonnull align 8 dereferenceable(8) %2) #21
  resume { ptr, i32 } %44

._crit_edge:                                      ; preds = %_ZN4cvc58internal12NodeTemplateILb1EED2Ev.exit, %7, %1
  %spec.select = phi i32 [ 1, %1 ], [ 1, %7 ], [ -2, %_ZN4cvc58internal12NodeTemplateILb1EED2Ev.exit ]
  ret i32 %spec.select
}